; Function Attrs: nofree norecurse nosync nounwind memory(argmem: readwrite) uwtable
define hidden range(i32 -38, 1) i32 @mbedtls_camellia_crypt_cbc(ptr noundef readonly captures(none) %0, i32 noundef %1, i64 noundef %2, ptr noundef captures(none) %3, ptr noundef readonly captures(none) %4, ptr noundef captures(none) %5) local_unnamed_addr #4 {
  %7 = alloca [16 x i8], align 16
  call void @llvm.lifetime.start.p0(i64 16, ptr nonnull %7)
  %or.cond = icmp ugt i32 %1, 1
  br i1 %or.cond, label %.loopexit, label %8

8:                                                ; preds = %6
  %9 = and i64 %2, 15
  %.not = icmp eq i64 %9, 0
  br i1 %.not, label %10, label %.loopexit

10:                                               ; preds = %8
  %11 = icmp eq i32 %1, 0
  %.not3758 = icmp eq i64 %2, 0
  br i1 %11, label %.preheader44, label %.preheader47

.preheader47:                                     ; preds = %10
  br i1 %.not3758, label %.loopexit, label %.preheader46.preheader

.preheader46.preheader:                           ; preds = %.preheader47
  %12 = getelementptr inbounds nuw i8, ptr %3, i64 8
  br label %.preheader46

.preheader44:                                     ; preds = %10
  br i1 %.not3758, label %.loopexit, label %.lr.ph62.preheader

.lr.ph62.preheader:                               ; preds = %.preheader44
  %13 = getelementptr inbounds nuw i8, ptr %3, i64 8
  br label %.lr.ph62

.lr.ph62:                                         ; preds = %.lr.ph62.preheader, %.lr.ph62
  %.061 = phi ptr [ %19, %.lr.ph62 ], [ %5, %.lr.ph62.preheader ]
  %.03160 = phi ptr [ %18, %.lr.ph62 ], [ %4, %.lr.ph62.preheader ]
  %.03459 = phi i64 [ %20, %.lr.ph62 ], [ %2, %.lr.ph62.preheader ]
  call void @llvm.memcpy.p0.p0.i64(ptr noundef nonnull align 16 dereferenceable(16) %7, ptr noundef nonnull align 1 dereferenceable(16) %.03160, i64 16, i1 false)
  %14 = tail call i32 @mbedtls_camellia_crypt_ecb(ptr noundef %0, i32 noundef 0, ptr noundef nonnull %.03160, ptr noundef %.061)
  %.0.copyload.i43 = load i64, ptr %.061, align 1
  %.0.copyload.i42 = load i64, ptr %3, align 1
  %15 = xor i64 %.0.copyload.i42, %.0.copyload.i43
  store i64 %15, ptr %.061, align 1
  %16 = getelementptr inbounds nuw i8, ptr %.061, i64 8
  %.0.copyload.i43.c = load i64, ptr %16, align 1
  %.0.copyload.i42.c = load i64, ptr %13, align 1
  %17 = xor i64 %.0.copyload.i42.c, %.0.copyload.i43.c
  store i64 %17, ptr %16, align 1
  call void @llvm.memcpy.p0.p0.i64(ptr noundef nonnull align 1 dereferenceable(16) %3, ptr noundef nonnull align 16 dereferenceable(16) %7, i64 16, i1 false)
  %18 = getelementptr inbounds nuw i8, ptr %.03160, i64 16
  %19 = getelementptr inbounds nuw i8, ptr %.061, i64 16
  %20 = add i64 %.03459, -16
  %.not37 = icmp eq i64 %20, 0
  br i1 %.not37, label %.loopexit, label %.lr.ph62, !llvm.loop !28

.preheader46:                                     ; preds = %.preheader46.preheader, %.preheader46
  %.154 = phi ptr [ %27, %.preheader46 ], [ %5, %.preheader46.preheader ]
  %.13253 = phi ptr [ %26, %.preheader46 ], [ %4, %.preheader46.preheader ]
  %.13552 = phi i64 [ %28, %.preheader46 ], [ %2, %.preheader46.preheader ]
  %.0.copyload.i41 = load i64, ptr %.13253, align 1
  %.0.copyload.i = load i64, ptr %3, align 1
  %21 = xor i64 %.0.copyload.i, %.0.copyload.i41
  store i64 %21, ptr %.154, align 1
  %22 = getelementptr inbounds nuw i8, ptr %.13253, i64 8
  %.0.copyload.i41.c = load i64, ptr %22, align 1
  %.0.copyload.i.c = load i64, ptr %12, align 1
  %23 = xor i64 %.0.copyload.i.c, %.0.copyload.i41.c
  %24 = getelementptr inbounds nuw i8, ptr %.154, i64 8
  store i64 %23, ptr %24, align 1
  %25 = tail call i32 @mbedtls_camellia_crypt_ecb(ptr noundef %0, i32 noundef %1, ptr noundef nonnull %.154, ptr noundef nonnull %.154)
  tail call void @llvm.memcpy.p0.p0.i64(ptr noundef nonnull align 1 dereferenceable(16) %3, ptr noundef nonnull align 1 dereferenceable(16) %.154, i64 16, i1 false)
  %26 = getelementptr inbounds nuw i8, ptr %.13253, i64 16
  %27 = getelementptr inbounds nuw i8, ptr %.154, i64 16
  %28 = add i64 %.13552, -16
  %.not36 = icmp eq i64 %28, 0
  br i1 %.not36, label %.loopexit, label %.preheader46, !llvm.loop !29

.loopexit:                                        ; preds = %.preheader46, %.lr.ph62, %.preheader47, %.preheader44, %8, %6
  %.033 = phi i32 [ -36, %6 ], [ -38, %8 ], [ 0, %.preheader44 ], [ 0, %.preheader47 ], [ 0, %.lr.ph62 ], [ 0, %.preheader46 ]
  call void @llvm.lifetime.end.p0(i64 16, ptr nonnull %7)
  ret i32 %.033
}